target datalayout = "e-m:e-p270:32:32-p271:32:32-p272:64:64-i64:64-i128:128-f80:128-n8:16:32:64-S128"
target triple = "x86_64-pc-linux-gnu"

%"class.icu_77::UnicodeString" = type { %"class.icu_77::Replaceable", %"union.icu_77::UnicodeString::StackBufferOrFields" }
%"class.icu_77::Replaceable" = type { %"class.icu_77::UObject" }
%"class.icu_77::UObject" = type { ptr }
%"union.icu_77::UnicodeString::StackBufferOrFields" = type { %struct.anon.0, [32 x i8] }
%struct.anon.0 = type { i16, i32, i32, ptr }
%"class.icu_77::DateTimePatternGenerator" = type <{ %"class.icu_77::UObject", %"class.icu_77::Locale", ptr, ptr, ptr, ptr, [16 x %"class.icu_77::UnicodeString"], [16 x [3 x %"class.icu_77::UnicodeString"]], [4 x %"class.icu_77::UnicodeString"], %"class.icu_77::UnicodeString", ptr, ptr, %"class.icu_77::UnicodeString", i16, [2 x i8], [7 x i32], i32, [4 x i8] }>
%"class.icu_77::Locale" = type <{ %"class.icu_77::UObject", [12 x i8], [6 x i8], [4 x i8], [2 x i8], i32, [4 x i8], ptr, [157 x i8], [3 x i8], ptr, i8, [7 x i8] }>
%"class.icu_77::Hashtable" = type { ptr, %struct.UHashtable }
%struct.UHashtable = type { ptr, ptr, ptr, ptr, ptr, ptr, i32, i32, i32, i32, float, float, i8, i8 }

; Function Attrs: inlinehint mustprogress uwtable
define linkonce_odr noundef i32 @_ZNK6icu_779Hashtable4getiERKNS_13UnicodeStringE(ptr noundef nonnull align 8 dereferenceable(88) %0, ptr noundef nonnull align 8 dereferenceable(64) %1) #3 comdat align 2 {
  %3 = alloca ptr, align 8
  %4 = alloca ptr, align 8
  store ptr %0, ptr %3, align 8, !tbaa !87
  store ptr %1, ptr %4, align 8, !tbaa !60
  %5 = load ptr, ptr %3, align 8
  %6 = getelementptr inbounds nuw %"class.icu_77::Hashtable", ptr %5, i32 0, i32 0
  %7 = load ptr, ptr %6, align 8, !tbaa !97
  %8 = load ptr, ptr %4, align 8, !tbaa !60
  %9 = call i32 @uhash_geti_77(ptr noundef %7, ptr noundef %8)
  ret i32 %9
}

; Function Attrs: mustprogress uwtable
define noundef signext i8 @_ZNK6icu_7724DateTimePatternGenerator20isAvailableFormatSetERKNS_13UnicodeStringE(ptr noundef nonnull align 8 dereferenceable(4796) %0, ptr noundef nonnull align 8 dereferenceable(64) %1) #1 align 2 {
  %3 = alloca ptr, align 8
  %4 = alloca ptr, align 8
  store ptr %0, ptr %3, align 8, !tbaa !23
  store ptr %1, ptr %4, align 8, !tbaa !60
  %5 = load ptr, ptr %3, align 8
  %6 = getelementptr inbounds nuw %"class.icu_77::DateTimePatternGenerator", ptr %5, i32 0, i32 11
  %7 = load ptr, ptr %6, align 8, !tbaa !51
  %8 = load ptr, ptr %4, align 8, !tbaa !60
  %9 = call noundef i32 @_ZNK6icu_779Hashtable4getiERKNS_13UnicodeStringE(ptr noundef nonnull align 8 dereferenceable(88) %7, ptr noundef nonnull align 8 dereferenceable(64) %8)
  %10 = icmp eq i32 %9, 1
  %11 = zext i1 %10 to i8
  ret i8 %11
}