; Function Attrs: mustprogress uwtable
define noundef signext range(i8 0, 2) i8 @_ZNK6icu_7724DateTimePatternGenerator20isAvailableFormatSetERKNS_13UnicodeStringE(ptr noundef nonnull readonly align 8 captures(none) dereferenceable(4796) %0, ptr noundef nonnull align 8 dereferenceable(64) %1) local_unnamed_addr #1 align 2 {
  %3 = getelementptr inbounds nuw i8, ptr %0, i64 4688
  %4 = load ptr, ptr %3, align 8, !tbaa !48
  %5 = load ptr, ptr %4, align 8, !tbaa !66
  %6 = tail call noundef i32 @uhash_geti_77(ptr noundef %5, ptr noundef nonnull align 8 dereferenceable(64) %1)
  %7 = icmp eq i32 %6, 1
  %8 = zext i1 %7 to i8
  ret i8 %8
}